target datalayout = "e-m:e-p270:32:32-p271:32:32-p272:64:64-i64:64-i128:128-f80:128-n8:16:32:64-S128"
target triple = "x86_64-pc-linux-gnu"

%struct._packet_info = type { ptr, ptr, i32, i32, %struct.nstime_t, %struct.nstime_t, %struct.nstime_t, i8, ptr, ptr, ptr, ptr, %struct._address, %struct._address, %struct._address, %struct._address, %struct._address, %struct._address, i32, ptr, i8, [3 x i8], %struct.anon, i32, i32, i32, i32, ptr, i8, ptr, ptr, i16, i16, i32, i32, i16, i32, i32, ptr, ptr, ptr, i8, i8, i16, i16, i16, i32, i16, i16, ptr, ptr, ptr, ptr, ptr, i32, i32 }
%struct.nstime_t = type { i64, i32 }
%struct._address = type { i32, i32, ptr, ptr }
%struct.anon = type { i8, [3 x i8] }

@hf_xot_version = internal global i32 0, align 4
@hf_xot_length = internal global i32 0, align 4
@hf_x25_gfi = internal global i32 0, align 4
@hf_x25_lcn = internal global i32 0, align 4
@hf_x25_type = internal global i32 0, align 4
@hf_xot_pvc_version = internal global i32 0, align 4
@hf_xot_pvc_status = internal global i32 0, align 4
@hf_xot_pvc_init_itf_name_len = internal global i32 0, align 4
@hf_xot_pvc_init_lcn = internal global i32 0, align 4
@hf_xot_pvc_resp_itf_name_len = internal global i32 0, align 4
@hf_xot_pvc_resp_lcn = internal global i32 0, align 4
@hf_xot_pvc_send_inc_window = internal global i32 0, align 4
@hf_xot_pvc_send_out_window = internal global i32 0, align 4
@hf_xot_pvc_send_inc_pkt_size = internal global i32 0, align 4
@hf_xot_pvc_send_out_pkt_size = internal global i32 0, align 4
@hf_xot_pvc_init_itf_name = internal global i32 0, align 4
@hf_xot_pvc_resp_itf_name = internal global i32 0, align 4
@ett_xot = internal global i32 0, align 4
@.str.39 = private unnamed_addr constant [14 x i8] c"X.25 over TCP\00", align 1
@.str.40 = private unnamed_addr constant [4 x i8] c"XOT\00", align 1
@proto_xot = internal global i32 0, align 4
@x25_handle = internal global ptr null, align 8
@.str.69 = private unnamed_addr constant [28 x i8] c"XOT Version = %u, size = %u\00", align 1
@.str.70 = private unnamed_addr constant [12 x i8] c" TotX25: %d\00", align 1
@.str.71 = private unnamed_addr constant [14 x i8] c"XOT PVC Setup\00", align 1
@.str.72 = private unnamed_addr constant [5 x i8] c"2^%u\00", align 1

; Function Attrs: null_pointer_is_valid sspstrong uwtable
define internal i32 @dissect_xot_pdu(ptr noundef %0, ptr noundef %1, ptr noundef %2, ptr noundef %3) #0 {
  %5 = alloca ptr, align 8
  %6 = alloca ptr, align 8
  %7 = alloca ptr, align 8
  %8 = alloca ptr, align 8
  %9 = alloca i32, align 4
  %10 = alloca i16, align 2
  %11 = alloca i16, align 2
  %12 = alloca i8, align 1
  %13 = alloca ptr, align 8
  %14 = alloca ptr, align 8
  %15 = alloca ptr, align 8
  %16 = alloca i32, align 4
  %17 = alloca i32, align 4
  %18 = alloca i32, align 4
  %19 = alloca i32, align 4
  store ptr %0, ptr %5, align 8
  store ptr %1, ptr %6, align 8
  store ptr %2, ptr %7, align 8
  store ptr %3, ptr %8, align 8
  call void @llvm.lifetime.start.p0(i64 4, ptr %9) #3
  store i32 0, ptr %9, align 4
  call void @llvm.lifetime.start.p0(i64 2, ptr %10) #3
  call void @llvm.lifetime.start.p0(i64 2, ptr %11) #3
  call void @llvm.lifetime.start.p0(i64 1, ptr %12) #3
  call void @llvm.lifetime.start.p0(i64 8, ptr %13) #3
  store ptr null, ptr %13, align 8
  call void @llvm.lifetime.start.p0(i64 8, ptr %14) #3
  store ptr null, ptr %14, align 8
  call void @llvm.lifetime.start.p0(i64 8, ptr %15) #3
  %20 = load ptr, ptr %6, align 8
  %21 = getelementptr inbounds nuw %struct._packet_info, ptr %20, i32 0, i32 1
  %22 = load ptr, ptr %21, align 8
  call void @col_set_str(ptr noundef %22, i32 noundef 35, ptr noundef @.str.40)
  %23 = load ptr, ptr %5, align 8
  %24 = load i32, ptr %9, align 4
  %25 = add i32 %24, 0
  %26 = call zeroext i16 @tvb_get_ntohs(ptr noundef %23, i32 noundef %25)
  store i16 %26, ptr %10, align 2
  %27 = load ptr, ptr %5, align 8
  %28 = load i32, ptr %9, align 4
  %29 = add i32 %28, 2
  %30 = call zeroext i16 @tvb_get_ntohs(ptr noundef %27, i32 noundef %29)
  store i16 %30, ptr %11, align 2
  %31 = load ptr, ptr %6, align 8
  %32 = getelementptr inbounds nuw %struct._packet_info, ptr %31, i32 0, i32 1
  %33 = load ptr, ptr %32, align 8
  %34 = load i16, ptr %10, align 2
  %35 = zext i16 %34 to i32
  %36 = load i16, ptr %11, align 2
  %37 = zext i16 %36 to i32
  call void (ptr, i32, ptr, ...) @col_add_fstr(ptr noundef %33, i32 noundef 25, ptr noundef @.str.69, i32 noundef %35, i32 noundef %37)
  %38 = load i32, ptr %9, align 4
  %39 = icmp eq i32 %38, 0
  br i1 %39, label %40, label %55

40:                                               ; preds = %4
  %41 = load ptr, ptr %5, align 8
  %42 = load i32, ptr %9, align 4
  %43 = call i32 @tvb_reported_length_remaining(ptr noundef %41, i32 noundef %42)
  %44 = load i16, ptr %11, align 2
  %45 = zext i16 %44 to i32
  %46 = add i32 4, %45
  %47 = icmp sgt i32 %43, %46
  br i1 %47, label %48, label %55

48:                                               ; preds = %40
  %49 = load ptr, ptr %6, align 8
  %50 = getelementptr inbounds nuw %struct._packet_info, ptr %49, i32 0, i32 1
  %51 = load ptr, ptr %50, align 8
  %52 = load ptr, ptr %5, align 8
  %53 = load i32, ptr %9, align 4
  %54 = call i32 @tvb_reported_length_remaining(ptr noundef %52, i32 noundef %53)
  call void (ptr, i32, ptr, ...) @col_append_fstr(ptr noundef %51, i32 noundef 25, ptr noundef @.str.70, i32 noundef %54)
  br label %55

55:                                               ; preds = %48, %40, %4
  %56 = load ptr, ptr %7, align 8
  %57 = icmp ne ptr %56, null
  br i1 %57, label %58, label %82

58:                                               ; preds = %55
  %59 = load ptr, ptr %7, align 8
  %60 = load i32, ptr @proto_xot, align 4
  %61 = load ptr, ptr %5, align 8
  %62 = load i32, ptr %9, align 4
  %63 = call ptr (ptr, i32, ptr, i32, i32, ptr, ...) @proto_tree_add_protocol_format(ptr noundef %59, i32 noundef %60, ptr noundef %61, i32 noundef %62, i32 noundef 4, ptr noundef @.str.39)
  store ptr %63, ptr %13, align 8
  %64 = load ptr, ptr %13, align 8
  %65 = load i32, ptr @ett_xot, align 4
  %66 = call ptr @proto_item_add_subtree(ptr noundef %64, i32 noundef %65)
  store ptr %66, ptr %14, align 8
  %67 = load ptr, ptr %14, align 8
  %68 = load i32, ptr @hf_xot_version, align 4
  %69 = load ptr, ptr %5, align 8
  %70 = load i32, ptr %9, align 4
  %71 = load i16, ptr %10, align 2
  %72 = zext i16 %71 to i32
  %73 = call ptr @proto_tree_add_uint(ptr noundef %67, i32 noundef %68, ptr noundef %69, i32 noundef %70, i32 noundef 2, i32 noundef %72)
  %74 = load ptr, ptr %14, align 8
  %75 = load i32, ptr @hf_xot_length, align 4
  %76 = load ptr, ptr %5, align 8
  %77 = load i32, ptr %9, align 4
  %78 = add i32 %77, 2
  %79 = load i16, ptr %11, align 2
  %80 = zext i16 %79 to i32
  %81 = call ptr @proto_tree_add_uint(ptr noundef %74, i32 noundef %75, ptr noundef %76, i32 noundef %78, i32 noundef 2, i32 noundef %80)
  br label %82

82:                                               ; preds = %58, %55
  %83 = load i32, ptr %9, align 4
  %84 = add i32 %83, 4
  store i32 %84, ptr %9, align 4
  %85 = load i16, ptr %11, align 2
  %86 = zext i16 %85 to i32
  %87 = icmp sge i32 %86, 3
  br i1 %87, label %88, label %241

88:                                               ; preds = %82
  %89 = load ptr, ptr %5, align 8
  %90 = load i32, ptr %9, align 4
  %91 = add i32 %90, 2
  %92 = call zeroext i8 @tvb_get_uint8(ptr noundef %89, i32 noundef %91)
  store i8 %92, ptr %12, align 1
  %93 = load i8, ptr %12, align 1
  %94 = zext i8 %93 to i32
  %95 = icmp eq i32 %94, 245
  br i1 %95, label %96, label %229

96:                                               ; preds = %88
  call void @llvm.lifetime.start.p0(i64 4, ptr %16) #3
  call void @llvm.lifetime.start.p0(i64 4, ptr %17) #3
  call void @llvm.lifetime.start.p0(i64 4, ptr %18) #3
  call void @llvm.lifetime.start.p0(i64 4, ptr %19) #3
  %97 = load i32, ptr %9, align 4
  store i32 %97, ptr %19, align 4
  %98 = load ptr, ptr %6, align 8
  %99 = getelementptr inbounds nuw %struct._packet_info, ptr %98, i32 0, i32 1
  %100 = load ptr, ptr %99, align 8
  call void @col_set_str(ptr noundef %100, i32 noundef 25, ptr noundef @.str.71)
  %101 = load ptr, ptr %13, align 8
  %102 = load i16, ptr %11, align 2
  %103 = zext i16 %102 to i32
  %104 = add i32 4, %103
  call void @proto_item_set_len(ptr noundef %101, i32 noundef %104)
  %105 = load ptr, ptr %14, align 8
  %106 = load i32, ptr @hf_x25_gfi, align 4
  %107 = load ptr, ptr %5, align 8
  %108 = load i32, ptr %19, align 4
  %109 = call ptr @proto_tree_add_item(ptr noundef %105, i32 noundef %106, ptr noundef %107, i32 noundef %108, i32 noundef 2, i32 noundef 0)
  %110 = load ptr, ptr %14, align 8
  %111 = load i32, ptr @hf_x25_lcn, align 4
  %112 = load ptr, ptr %5, align 8
  %113 = load i32, ptr %19, align 4
  %114 = call ptr @proto_tree_add_item(ptr noundef %110, i32 noundef %111, ptr noundef %112, i32 noundef %113, i32 noundef 2, i32 noundef 0)
  %115 = load i32, ptr %19, align 4
  %116 = add i32 %115, 2
  store i32 %116, ptr %19, align 4
  %117 = load ptr, ptr %14, align 8
  %118 = load i32, ptr @hf_x25_type, align 4
  %119 = load ptr, ptr %5, align 8
  %120 = load i32, ptr %19, align 4
  %121 = call ptr @proto_tree_add_item(ptr noundef %117, i32 noundef %118, ptr noundef %119, i32 noundef %120, i32 noundef 1, i32 noundef 0)
  %122 = load i32, ptr %19, align 4
  %123 = add i32 %122, 1
  store i32 %123, ptr %19, align 4
  %124 = load ptr, ptr %14, align 8
  %125 = load i32, ptr @hf_xot_pvc_version, align 4
  %126 = load ptr, ptr %5, align 8
  %127 = load i32, ptr %19, align 4
  %128 = call ptr @proto_tree_add_item(ptr noundef %124, i32 noundef %125, ptr noundef %126, i32 noundef %127, i32 noundef 1, i32 noundef 0)
  %129 = load i32, ptr %19, align 4
  %130 = add i32 %129, 1
  store i32 %130, ptr %19, align 4
  %131 = load ptr, ptr %14, align 8
  %132 = load i32, ptr @hf_xot_pvc_status, align 4
  %133 = load ptr, ptr %5, align 8
  %134 = load i32, ptr %19, align 4
  %135 = call ptr @proto_tree_add_item(ptr noundef %131, i32 noundef %132, ptr noundef %133, i32 noundef %134, i32 noundef 1, i32 noundef 0)
  %136 = load i32, ptr %19, align 4
  %137 = add i32 %136, 1
  store i32 %137, ptr %19, align 4
  %138 = load ptr, ptr %14, align 8
  %139 = load i32, ptr @hf_xot_pvc_init_itf_name_len, align 4
  %140 = load ptr, ptr %5, align 8
  %141 = load i32, ptr %19, align 4
  %142 = call ptr @proto_tree_add_item(ptr noundef %138, i32 noundef %139, ptr noundef %140, i32 noundef %141, i32 noundef 1, i32 noundef 0)
  %143 = load ptr, ptr %5, align 8
  %144 = load i32, ptr %19, align 4
  %145 = call zeroext i8 @tvb_get_uint8(ptr noundef %143, i32 noundef %144)
  %146 = zext i8 %145 to i32
  store i32 %146, ptr %16, align 4
  %147 = load i32, ptr %19, align 4
  %148 = add i32 %147, 1
  store i32 %148, ptr %19, align 4
  %149 = load ptr, ptr %14, align 8
  %150 = load i32, ptr @hf_xot_pvc_init_lcn, align 4
  %151 = load ptr, ptr %5, align 8
  %152 = load i32, ptr %19, align 4
  %153 = call ptr @proto_tree_add_item(ptr noundef %149, i32 noundef %150, ptr noundef %151, i32 noundef %152, i32 noundef 2, i32 noundef 0)
  %154 = load i32, ptr %19, align 4
  %155 = add i32 %154, 2
  store i32 %155, ptr %19, align 4
  %156 = load ptr, ptr %14, align 8
  %157 = load i32, ptr @hf_xot_pvc_resp_itf_name_len, align 4
  %158 = load ptr, ptr %5, align 8
  %159 = load i32, ptr %19, align 4
  %160 = call ptr @proto_tree_add_item(ptr noundef %156, i32 noundef %157, ptr noundef %158, i32 noundef %159, i32 noundef 1, i32 noundef 0)
  %161 = load ptr, ptr %5, align 8
  %162 = load i32, ptr %19, align 4
  %163 = call zeroext i8 @tvb_get_uint8(ptr noundef %161, i32 noundef %162)
  %164 = zext i8 %163 to i32
  store i32 %164, ptr %17, align 4
  %165 = load i32, ptr %19, align 4
  %166 = add i32 %165, 1
  store i32 %166, ptr %19, align 4
  %167 = load ptr, ptr %14, align 8
  %168 = load i32, ptr @hf_xot_pvc_resp_lcn, align 4
  %169 = load ptr, ptr %5, align 8
  %170 = load i32, ptr %19, align 4
  %171 = call ptr @proto_tree_add_item(ptr noundef %167, i32 noundef %168, ptr noundef %169, i32 noundef %170, i32 noundef 2, i32 noundef 0)
  %172 = load i32, ptr %19, align 4
  %173 = add i32 %172, 2
  store i32 %173, ptr %19, align 4
  %174 = load ptr, ptr %14, align 8
  %175 = load i32, ptr @hf_xot_pvc_send_inc_window, align 4
  %176 = load ptr, ptr %5, align 8
  %177 = load i32, ptr %19, align 4
  %178 = call ptr @proto_tree_add_item(ptr noundef %174, i32 noundef %175, ptr noundef %176, i32 noundef %177, i32 noundef 1, i32 noundef 0)
  %179 = load i32, ptr %19, align 4
  %180 = add i32 %179, 1
  store i32 %180, ptr %19, align 4
  %181 = load ptr, ptr %14, align 8
  %182 = load i32, ptr @hf_xot_pvc_send_out_window, align 4
  %183 = load ptr, ptr %5, align 8
  %184 = load i32, ptr %19, align 4
  %185 = call ptr @proto_tree_add_item(ptr noundef %181, i32 noundef %182, ptr noundef %183, i32 noundef %184, i32 noundef 1, i32 noundef 0)
  %186 = load i32, ptr %19, align 4
  %187 = add i32 %186, 1
  store i32 %187, ptr %19, align 4
  %188 = load ptr, ptr %5, align 8
  %189 = load i32, ptr %19, align 4
  %190 = call zeroext i8 @tvb_get_uint8(ptr noundef %188, i32 noundef %189)
  %191 = zext i8 %190 to i32
  store i32 %191, ptr %18, align 4
  %192 = load ptr, ptr %14, align 8
  %193 = load i32, ptr @hf_xot_pvc_send_inc_pkt_size, align 4
  %194 = load ptr, ptr %5, align 8
  %195 = load i32, ptr %19, align 4
  %196 = load i32, ptr %18, align 4
  %197 = load i32, ptr %18, align 4
  %198 = call ptr (ptr, i32, ptr, i32, i32, i32, ptr, ...) @proto_tree_add_uint_format_value(ptr noundef %192, i32 noundef %193, ptr noundef %194, i32 noundef %195, i32 noundef 1, i32 noundef %196, ptr noundef @.str.72, i32 noundef %197)
  %199 = load i32, ptr %19, align 4
  %200 = add i32 %199, 1
  store i32 %200, ptr %19, align 4
  %201 = load ptr, ptr %5, align 8
  %202 = load i32, ptr %19, align 4
  %203 = call zeroext i8 @tvb_get_uint8(ptr noundef %201, i32 noundef %202)
  %204 = zext i8 %203 to i32
  store i32 %204, ptr %18, align 4
  %205 = load ptr, ptr %14, align 8
  %206 = load i32, ptr @hf_xot_pvc_send_out_pkt_size, align 4
  %207 = load ptr, ptr %5, align 8
  %208 = load i32, ptr %19, align 4
  %209 = load i32, ptr %18, align 4
  %210 = load i32, ptr %18, align 4
  %211 = call ptr (ptr, i32, ptr, i32, i32, i32, ptr, ...) @proto_tree_add_uint_format_value(ptr noundef %205, i32 noundef %206, ptr noundef %207, i32 noundef %208, i32 noundef 1, i32 noundef %209, ptr noundef @.str.72, i32 noundef %210)
  %212 = load i32, ptr %19, align 4
  %213 = add i32 %212, 1
  store i32 %213, ptr %19, align 4
  %214 = load ptr, ptr %14, align 8
  %215 = load i32, ptr @hf_xot_pvc_init_itf_name, align 4
  %216 = load ptr, ptr %5, align 8
  %217 = load i32, ptr %19, align 4
  %218 = load i32, ptr %16, align 4
  %219 = call ptr @proto_tree_add_item(ptr noundef %214, i32 noundef %215, ptr noundef %216, i32 noundef %217, i32 noundef %218, i32 noundef 0)
  %220 = load i32, ptr %16, align 4
  %221 = load i32, ptr %19, align 4
  %222 = add i32 %221, %220
  store i32 %222, ptr %19, align 4
  %223 = load ptr, ptr %14, align 8
  %224 = load i32, ptr @hf_xot_pvc_resp_itf_name, align 4
  %225 = load ptr, ptr %5, align 8
  %226 = load i32, ptr %19, align 4
  %227 = load i32, ptr %17, align 4
  %228 = call ptr @proto_tree_add_item(ptr noundef %223, i32 noundef %224, ptr noundef %225, i32 noundef %226, i32 noundef %227, i32 noundef 0)
  call void @llvm.lifetime.end.p0(i64 4, ptr %19) #3
  call void @llvm.lifetime.end.p0(i64 4, ptr %18) #3
  call void @llvm.lifetime.end.p0(i64 4, ptr %17) #3
  call void @llvm.lifetime.end.p0(i64 4, ptr %16) #3
  br label %240

229:                                              ; preds = %88
  %230 = load ptr, ptr %5, align 8
  %231 = load i32, ptr %9, align 4
  %232 = load i16, ptr %11, align 2
  %233 = zext i16 %232 to i32
  %234 = call ptr @tvb_new_subset_length(ptr noundef %230, i32 noundef %231, i32 noundef %233)
  store ptr %234, ptr %15, align 8
  %235 = load ptr, ptr @x25_handle, align 8
  %236 = load ptr, ptr %15, align 8
  %237 = load ptr, ptr %6, align 8
  %238 = load ptr, ptr %7, align 8
  %239 = call i32 @call_dissector(ptr noundef %235, ptr noundef %236, ptr noundef %237, ptr noundef %238)
  br label %240

240:                                              ; preds = %229, %96
  br label %241

241:                                              ; preds = %240, %82
  %242 = load ptr, ptr %5, align 8
  %243 = call i32 @tvb_captured_length(ptr noundef %242)
  call void @llvm.lifetime.end.p0(i64 8, ptr %15) #3
  call void @llvm.lifetime.end.p0(i64 8, ptr %14) #3
  call void @llvm.lifetime.end.p0(i64 8, ptr %13) #3
  call void @llvm.lifetime.end.p0(i64 1, ptr %12) #3
  call void @llvm.lifetime.end.p0(i64 2, ptr %11) #3
  call void @llvm.lifetime.end.p0(i64 2, ptr %10) #3
  call void @llvm.lifetime.end.p0(i64 4, ptr %9) #3
  ret i32 %243
}