; Function Attrs: null_pointer_is_valid sspstrong uwtable
define internal i32 @dissect_xot_pdu(ptr noundef %0, ptr noundef %1, ptr noundef %2, ptr readnone captures(none) %3) #0 {
  %5 = getelementptr inbounds nuw i8, ptr %1, i64 8
  %6 = load ptr, ptr %5, align 8
  tail call void @col_set_str(ptr noundef %6, i32 noundef 35, ptr noundef nonnull @.str.40)
  %7 = tail call zeroext i16 @tvb_get_ntohs(ptr noundef %0, i32 noundef 0)
  %8 = tail call zeroext i16 @tvb_get_ntohs(ptr noundef %0, i32 noundef 2)
  %9 = load ptr, ptr %5, align 8
  %10 = zext i16 %7 to i32
  %11 = zext i16 %8 to i32
  tail call void (ptr, i32, ptr, ...) @col_add_fstr(ptr noundef %9, i32 noundef 25, ptr noundef nonnull @.str.69, i32 noundef %10, i32 noundef %11)
  %12 = tail call i32 @tvb_reported_length_remaining(ptr noundef %0, i32 noundef 0)
  %13 = add nuw nsw i32 %11, 4
  %14 = icmp sgt i32 %12, %13
  br i1 %14, label %15, label %18

15:                                               ; preds = %4
  %16 = load ptr, ptr %5, align 8
  %17 = tail call i32 @tvb_reported_length_remaining(ptr noundef %0, i32 noundef 0)
  tail call void (ptr, i32, ptr, ...) @col_append_fstr(ptr noundef %16, i32 noundef 25, ptr noundef nonnull @.str.70, i32 noundef %17)
  br label %18

18:                                               ; preds = %15, %4
  %.not = icmp eq ptr %2, null
  br i1 %.not, label %28, label %19

19:                                               ; preds = %18
  %20 = load i32, ptr @proto_xot, align 4
  %21 = tail call ptr (ptr, i32, ptr, i32, i32, ptr, ...) @proto_tree_add_protocol_format(ptr noundef nonnull %2, i32 noundef %20, ptr noundef %0, i32 noundef 0, i32 noundef 4, ptr noundef nonnull @.str.39)
  %22 = load i32, ptr @ett_xot, align 4
  %23 = tail call ptr @proto_item_add_subtree(ptr noundef %21, i32 noundef %22)
  %24 = load i32, ptr @hf_xot_version, align 4
  %25 = tail call ptr @proto_tree_add_uint(ptr noundef %23, i32 noundef %24, ptr noundef %0, i32 noundef 0, i32 noundef 2, i32 noundef %10)
  %26 = load i32, ptr @hf_xot_length, align 4
  %27 = tail call ptr @proto_tree_add_uint(ptr noundef %23, i32 noundef %26, ptr noundef %0, i32 noundef 2, i32 noundef 2, i32 noundef %11)
  br label %28

28:                                               ; preds = %19, %18
  %.0116 = phi ptr [ %23, %19 ], [ null, %18 ]
  %.0 = phi ptr [ %21, %19 ], [ null, %18 ]
  %29 = icmp ugt i16 %8, 2
  br i1 %29, label %30, label %78

30:                                               ; preds = %28
  %31 = tail call zeroext i8 @tvb_get_uint8(ptr noundef %0, i32 noundef 6)
  %32 = icmp eq i8 %31, -11
  br i1 %32, label %33, label %74

33:                                               ; preds = %30
  %34 = load ptr, ptr %5, align 8
  tail call void @col_set_str(ptr noundef %34, i32 noundef 25, ptr noundef nonnull @.str.71)
  tail call void @proto_item_set_len(ptr noundef %.0, i32 noundef %13)
  %35 = load i32, ptr @hf_x25_gfi, align 4
  %36 = tail call ptr @proto_tree_add_item(ptr noundef %.0116, i32 noundef %35, ptr noundef %0, i32 noundef 4, i32 noundef 2, i32 noundef 0)
  %37 = load i32, ptr @hf_x25_lcn, align 4
  %38 = tail call ptr @proto_tree_add_item(ptr noundef %.0116, i32 noundef %37, ptr noundef %0, i32 noundef 4, i32 noundef 2, i32 noundef 0)
  %39 = load i32, ptr @hf_x25_type, align 4
  %40 = tail call ptr @proto_tree_add_item(ptr noundef %.0116, i32 noundef %39, ptr noundef %0, i32 noundef 6, i32 noundef 1, i32 noundef 0)
  %41 = load i32, ptr @hf_xot_pvc_version, align 4
  %42 = tail call ptr @proto_tree_add_item(ptr noundef %.0116, i32 noundef %41, ptr noundef %0, i32 noundef 7, i32 noundef 1, i32 noundef 0)
  %43 = load i32, ptr @hf_xot_pvc_status, align 4
  %44 = tail call ptr @proto_tree_add_item(ptr noundef %.0116, i32 noundef %43, ptr noundef %0, i32 noundef 8, i32 noundef 1, i32 noundef 0)
  %45 = load i32, ptr @hf_xot_pvc_init_itf_name_len, align 4
  %46 = tail call ptr @proto_tree_add_item(ptr noundef %.0116, i32 noundef %45, ptr noundef %0, i32 noundef 9, i32 noundef 1, i32 noundef 0)
  %47 = tail call zeroext i8 @tvb_get_uint8(ptr noundef %0, i32 noundef 9)
  %48 = zext i8 %47 to i32
  %49 = load i32, ptr @hf_xot_pvc_init_lcn, align 4
  %50 = tail call ptr @proto_tree_add_item(ptr noundef %.0116, i32 noundef %49, ptr noundef %0, i32 noundef 10, i32 noundef 2, i32 noundef 0)
  %51 = load i32, ptr @hf_xot_pvc_resp_itf_name_len, align 4
  %52 = tail call ptr @proto_tree_add_item(ptr noundef %.0116, i32 noundef %51, ptr noundef %0, i32 noundef 12, i32 noundef 1, i32 noundef 0)
  %53 = tail call zeroext i8 @tvb_get_uint8(ptr noundef %0, i32 noundef 12)
  %54 = zext i8 %53 to i32
  %55 = load i32, ptr @hf_xot_pvc_resp_lcn, align 4
  %56 = tail call ptr @proto_tree_add_item(ptr noundef %.0116, i32 noundef %55, ptr noundef %0, i32 noundef 13, i32 noundef 2, i32 noundef 0)
  %57 = load i32, ptr @hf_xot_pvc_send_inc_window, align 4
  %58 = tail call ptr @proto_tree_add_item(ptr noundef %.0116, i32 noundef %57, ptr noundef %0, i32 noundef 15, i32 noundef 1, i32 noundef 0)
  %59 = load i32, ptr @hf_xot_pvc_send_out_window, align 4
  %60 = tail call ptr @proto_tree_add_item(ptr noundef %.0116, i32 noundef %59, ptr noundef %0, i32 noundef 16, i32 noundef 1, i32 noundef 0)
  %61 = tail call zeroext i8 @tvb_get_uint8(ptr noundef %0, i32 noundef 17)
  %62 = zext i8 %61 to i32
  %63 = load i32, ptr @hf_xot_pvc_send_inc_pkt_size, align 4
  %64 = tail call ptr (ptr, i32, ptr, i32, i32, i32, ptr, ...) @proto_tree_add_uint_format_value(ptr noundef %.0116, i32 noundef %63, ptr noundef %0, i32 noundef 17, i32 noundef 1, i32 noundef %62, ptr noundef nonnull @.str.72, i32 noundef %62)
  %65 = tail call zeroext i8 @tvb_get_uint8(ptr noundef %0, i32 noundef 18)
  %66 = zext i8 %65 to i32
  %67 = load i32, ptr @hf_xot_pvc_send_out_pkt_size, align 4
  %68 = tail call ptr (ptr, i32, ptr, i32, i32, i32, ptr, ...) @proto_tree_add_uint_format_value(ptr noundef %.0116, i32 noundef %67, ptr noundef %0, i32 noundef 18, i32 noundef 1, i32 noundef %66, ptr noundef nonnull @.str.72, i32 noundef %66)
  %69 = load i32, ptr @hf_xot_pvc_init_itf_name, align 4
  %70 = tail call ptr @proto_tree_add_item(ptr noundef %.0116, i32 noundef %69, ptr noundef %0, i32 noundef 19, i32 noundef %48, i32 noundef 0)
  %71 = add nuw nsw i32 %48, 19
  %72 = load i32, ptr @hf_xot_pvc_resp_itf_name, align 4
  %73 = tail call ptr @proto_tree_add_item(ptr noundef %.0116, i32 noundef %72, ptr noundef %0, i32 noundef %71, i32 noundef %54, i32 noundef 0)
  br label %78

74:                                               ; preds = %30
  %75 = tail call ptr @tvb_new_subset_length(ptr noundef %0, i32 noundef 4, i32 noundef %11)
  %76 = load ptr, ptr @x25_handle, align 8
  %77 = tail call i32 @call_dissector(ptr noundef %76, ptr noundef %75, ptr noundef %1, ptr noundef %2)
  br label %78

78:                                               ; preds = %33, %74, %28
  %79 = tail call i32 @tvb_captured_length(ptr noundef %0)
  ret i32 %79
}